((dp0
I1
F-1.276327555235174
sI2
F-1.0267628041583758
sI3
F-1.882407586199266
sI4
F-1.5580224486559817
s(dp1
I1
(dp2
I1
F-0.9394332049935226
sI2
F-1.663989250166688
sI3
F-2.563281364593492
sI4
F-1.070849586518945
ssI2
(dp3
I1
F-0.8357709522353953
sI2
F-1.565575772862048
sI3
F-1.6252250030968642
sI4
F-1.8286837504066833
ssI3
(dp4
I1
F-1.3862943611198906
sI2
F-1.5818722903657885
sI3
F-1.4803680092386462
sI4
F-1.1493070616738952
ssI4
(dp5
I1
F-0.9021086150598102
sI2
F-2.726747009493177
sI3
F-1.3852653921197517
sI4
F-1.277986945398246
ss(dp6
I1
(dp7
S' '
p8
F-3.420545223506562
sS'a'
p9
F-3.1337044043006985
sS'c'
p10
F-3.2312096048684906
sS'b'
p11
F-4.1175777320053255
sS'e'
p12
F-3.437769599322379
sS'd'
p13
F-3.45852192758714
sS'g'
p14
F-3.4956369301874592
sS'f'
p15
F-3.1487907763818557
sS'i'
p16
F-4.459623948647702
sS'h'
p17
F-3.7878857680526026
sS'k'
p18
F-2.615138127663542
sS'j'
p19
F-3.0617559184544105
sS'm'
p20
F-3.536687726233593
sS'l'
p21
F-3.6129455068102816
sS'o'
p22
F-3.679457251333815
sS'n'
p23
F-3.1976769050239415
sS'q'
p24
F-3.1611733814665732
sS'p'
p25
F-3.7853362718416586
sS's'
p26
F-2.9685797001064334
sS'r'
p27
F-2.9994700824990677
sS'u'
p28
F-3.966923539397761
sS't'
p29
F-2.653352191572376
sS'w'
p30
F-2.963303117640086
sS'v'
p31
F-3.4296738475749704
sS'y'
p32
F-3.1823998647660985
sS'x'
p33
F-3.2305552672305313
sS'z'
p34
F-3.379026884128472
ssI2
(dp35
g8
F-3.560845686987264
sg9
F-3.507020508660561
sg10
F-3.558000278594784
sg11
F-3.0708143686348635
sg12
F-3.1800712636386756
sg13
F-3.304478362244946
sg14
F-3.5920089413163026
sg15
F-3.6966365664537606
sg16
F-3.330339705196338
sg17
F-2.7094545224607107
sg18
F-3.200423428929457
sg19
F-4.091376093285488
sg20
F-3.8244618607406244
sg21
F-2.7533492218010567
sg22
F-4.097786879886806
sg23
F-3.0964947297367558
sg24
F-2.8822781934859516
sg25
F-4.512695663882587
sg26
F-4.312468550505554
sg27
F-3.1005275977106805
sg28
F-3.7890649684804973
sg29
F-3.5438234889522415
sg30
F-3.1540685536432793
sg31
F-2.618013191504561
sg32
F-3.346649307196624
sg33
F-3.1426464487574086
sg34
F-2.8477352555844107
ssI3
(dp36
g8
F-3.252636862941478
sg9
F-3.049568974089264
sg10
F-4.012129179959774
sg11
F-2.639510499020141
sg12
F-3.0435271253467584
sg13
F-3.099526482891954
sg14
F-3.6024320890588033
sg15
F-3.3397802622327
sg16
F-3.4315821144701992
sg17
F-3.8353518700955287
sg18
F-3.337608583228149
sg19
F-2.869501597135626
sg20
F-3.0669374044107385
sg21
F-3.0721930019455117
sg22
F-3.527849249973174
sg23
F-3.8424270859825276
sg24
F-3.2583408066786093
sg25
F-3.382750218316559
sg26
F-2.7783130601064667
sg27
F-3.068684510667645
sg28
F-3.116952688385697
sg29
F-3.4493190054174674
sg30
F-3.802174250396638
sg31
F-3.1800925644787807
sg32
F-4.181026852791323
sg33
F-3.500510816879578
sg34
F-4.367108889676703
ssI4
(dp37
g8
F-2.7817189712308092
sg9
F-2.860088949131775
sg10
F-3.6991159017256305
sg11
F-3.6730154889894995
sg12
F-2.6484632870568627
sg13
F-3.854806205467187
sg14
F-3.3916600675490947
sg15
F-3.8350088896663843
sg16
F-3.6693323312654003
sg17
F-3.1064740415501295
sg18
F-3.4030365044421518
sg19
F-3.6360402880869134
sg20
F-3.5098292250919387
sg21
F-3.780946930989596
sg22
F-3.025784895517648
sg23
F-3.6328281021688174
sg24
F-3.3416803023510657
sg25
F-3.661460008373382
sg26
F-2.9366625716410986
sg27
F-3.120917717691467
sg28
F-2.9097707643446746
sg29
F-2.8219505593714027
sg30
F-3.7861743022105476
sg31
F-3.7474127187780018
sg32
F-3.5331087864478024
sg33
F-3.1604512768947157
sg34
F-3.328913037094102
sstp38
.