((dp0
I1
F-0.6931471805599453
sI2
F-0.6931471805599453
s(dp1
I1
(dp2
I1
F-0.6931471805599453
sI2
F-0.6931471805599453
ssI2
(dp3
I1
F-0.6931471805599453
sI2
F-0.6931471805599453
ss(dp4
I1
(dp5
S'a'
p6
F-1.9459101490553135
sS' '
p7
F-1.9459101490553135
sS'c'
p8
F-1.9459101490553135
sS'e'
p9
F-1.9459101490553135
sS'h'
p10
F-1.9459101490553135
sS'r'
p11
F-1.9459101490553135
sS't'
p12
F-1.9459101490553135
ssI2
(dp13
g6
F-1.9459101490553135
sg7
F-1.9459101490553135
sg8
F-1.9459101490553135
sg9
F-1.9459101490553135
sg10
F-1.9459101490553135
sg11
F-1.9459101490553135
sg12
F-1.9459101490553135
sstp14
.